; ModuleID = '19/1378.c'
source_filename = "19/1378.c"
target datalayout = "e-m:e-p270:32:32-p271:32:32-p272:64:64-i64:64-f80:128-n8:16:32:64-S128"
target triple = "x86_64-pc-linux-gnu"

@.str = private unnamed_addr constant [3 x i8] c"%s\00", align 1
@.str.1 = private unnamed_addr constant [4 x i8] c"%s \00", align 1

; Function Attrs: noinline nounwind uwtable
define dso_local i32 @main() #0 {
  %1 = alloca i32, align 4
  %2 = alloca i32, align 4
  %3 = alloca i32, align 4
  %4 = alloca [100 x [100 x i8]], align 16
  %5 = alloca [100 x i8], align 16
  %6 = alloca [100 x i8], align 16
  %7 = alloca i32, align 4
  store i32 0, i32* %1, align 4
  store i32 0, i32* %7, align 4
  store i32 0, i32* %2, align 4
  br label %8

8:                                                ; preds = %24, %0
  %9 = load i32, i32* %2, align 4
  %10 = icmp slt i32 %9, 100
  br i1 %10, label %11, label %27

11:                                               ; preds = %8
  %12 = load i32, i32* %2, align 4
  %13 = sext i32 %12 to i64
  %14 = getelementptr inbounds [100 x [100 x i8]], [100 x [100 x i8]]* %4, i64 0, i64 %13
  %15 = getelementptr inbounds [100 x i8], [100 x i8]* %14, i64 0, i64 0
  %16 = call i32 (i8*, ...) @__isoc99_scanf(i8* getelementptr inbounds ([3 x i8], [3 x i8]* @.str, i64 0, i64 0), i8* %15)
  %17 = load i32, i32* %7, align 4
  %18 = add nsw i32 %17, 1
  store i32 %18, i32* %7, align 4
  %19 = call i32 @getchar()
  store i32 %19, i32* %3, align 4
  %20 = load i32, i32* %3, align 4
  %21 = icmp eq i32 %20, 10
  br i1 %21, label %22, label %23

22:                                               ; preds = %11
  br label %27

23:                                               ; preds = %11
  br label %24

24:                                               ; preds = %23
  %25 = load i32, i32* %2, align 4
  %26 = add nsw i32 %25, 1
  store i32 %26, i32* %2, align 4
  br label %8

27:                                               ; preds = %22, %8
  %28 = getelementptr inbounds [100 x i8], [100 x i8]* %5, i64 0, i64 0
  %29 = call i32 (i8*, ...) @__isoc99_scanf(i8* getelementptr inbounds ([3 x i8], [3 x i8]* @.str, i64 0, i64 0), i8* %28)
  %30 = getelementptr inbounds [100 x i8], [100 x i8]* %6, i64 0, i64 0
  %31 = call i32 (i8*, ...) @__isoc99_scanf(i8* getelementptr inbounds ([3 x i8], [3 x i8]* @.str, i64 0, i64 0), i8* %30)
  store i32 0, i32* %2, align 4
  br label %32

32:                                               ; preds = %53, %27
  %33 = load i32, i32* %2, align 4
  %34 = load i32, i32* %7, align 4
  %35 = icmp slt i32 %33, %34
  br i1 %35, label %36, label %56

36:                                               ; preds = %32
  %37 = getelementptr inbounds [100 x i8], [100 x i8]* %5, i64 0, i64 0
  %38 = load i32, i32* %2, align 4
  %39 = sext i32 %38 to i64
  %40 = getelementptr inbounds [100 x [100 x i8]], [100 x [100 x i8]]* %4, i64 0, i64 %39
  %41 = getelementptr inbounds [100 x i8], [100 x i8]* %40, i64 0, i64 0
  %42 = call i32 @strcmp(i8* %37, i8* %41) #4
  store i32 %42, i32* %3, align 4
  %43 = load i32, i32* %3, align 4
  %44 = icmp eq i32 %43, 0
  br i1 %44, label %45, label %52

45:                                               ; preds = %36
  %46 = load i32, i32* %2, align 4
  %47 = sext i32 %46 to i64
  %48 = getelementptr inbounds [100 x [100 x i8]], [100 x [100 x i8]]* %4, i64 0, i64 %47
  %49 = getelementptr inbounds [100 x i8], [100 x i8]* %48, i64 0, i64 0
  %50 = getelementptr inbounds [100 x i8], [100 x i8]* %6, i64 0, i64 0
  %51 = call i8* @strcpy(i8* %49, i8* %50) #5
  br label %52

52:                                               ; preds = %45, %36
  br label %53

53:                                               ; preds = %52
  %54 = load i32, i32* %2, align 4
  %55 = add nsw i32 %54, 1
  store i32 %55, i32* %2, align 4
  br label %32

56:                                               ; preds = %32
  store i32 0, i32* %2, align 4
  br label %57

57:                                               ; preds = %68, %56
  %58 = load i32, i32* %2, align 4
  %59 = load i32, i32* %7, align 4
  %60 = sub nsw i32 %59, 1
  %61 = icmp slt i32 %58, %60
  br i1 %61, label %62, label %71

62:                                               ; preds = %57
  %63 = load i32, i32* %2, align 4
  %64 = sext i32 %63 to i64
  %65 = getelementptr inbounds [100 x [100 x i8]], [100 x [100 x i8]]* %4, i64 0, i64 %64
  %66 = getelementptr inbounds [100 x i8], [100 x i8]* %65, i64 0, i64 0
  %67 = call i32 (i8*, ...) @printf(i8* getelementptr inbounds ([4 x i8], [4 x i8]* @.str.1, i64 0, i64 0), i8* %66)
  br label %68

68:                                               ; preds = %62
  %69 = load i32, i32* %2, align 4
  %70 = add nsw i32 %69, 1
  store i32 %70, i32* %2, align 4
  br label %57

71:                                               ; preds = %57
  %72 = load i32, i32* %7, align 4
  %73 = sub nsw i32 %72, 1
  %74 = sext i32 %73 to i64
  %75 = getelementptr inbounds [100 x [100 x i8]], [100 x [100 x i8]]* %4, i64 0, i64 %74
  %76 = getelementptr inbounds [100 x i8], [100 x i8]* %75, i64 0, i64 0
  %77 = call i32 (i8*, ...) @printf(i8* getelementptr inbounds ([3 x i8], [3 x i8]* @.str, i64 0, i64 0), i8* %76)
  %78 = load i32, i32* %1, align 4
  ret i32 %78
}

declare dso_local i32 @__isoc99_scanf(i8*, ...) #1

declare dso_local i32 @getchar() #1

; Function Attrs: nounwind readonly
declare dso_local i32 @strcmp(i8*, i8*) #2

; Function Attrs: nounwind
declare dso_local i8* @strcpy(i8*, i8*) #3

declare dso_local i32 @printf(i8*, ...) #1


!llvm.module.flags = !{!0}
!llvm.ident = !{!1}

!0 = !{i32 1, !"wchar_size", i32 4}
!1 = !{!"clang version 10.0.0-4ubuntu1 "}
